target datalayout = "e-m:e-p270:32:32-p271:32:32-p272:64:64-i64:64-i128:128-f80:128-n8:16:32:64-S128"
target triple = "x86_64-pc-linux-gnu"

%struct.refspec_item = type { i8, ptr, ptr, ptr }
%struct.known_remotes = type { ptr, ptr }
%struct.branches_for_remote = type { ptr, ptr, ptr, ptr }
%struct.known_remote = type { ptr, ptr }

@.str.79 = private unnamed_addr constant [12 x i8] c"refs/heads/\00", align 1
@.str.100 = private unnamed_addr constant [14 x i8] c"refs/remotes/\00", align 1

; Function Attrs: inlinehint nounwind uwtable
define internal zeroext i1 @skip_prefix(ptr noundef %0, ptr noundef %1, ptr noundef %2) #4 {
  %4 = alloca i1, align 1
  %5 = alloca ptr, align 8
  %6 = alloca ptr, align 8
  %7 = alloca ptr, align 8
  store ptr %0, ptr %5, align 8, !tbaa !11
  store ptr %1, ptr %6, align 8, !tbaa !11
  store ptr %2, ptr %7, align 8, !tbaa !8
  br label %8

8:                                                ; preds = %16, %3
  %9 = load ptr, ptr %6, align 8, !tbaa !11
  %10 = load i8, ptr %9, align 1, !tbaa !125
  %11 = icmp ne i8 %10, 0
  br i1 %11, label %15, label %12

12:                                               ; preds = %8
  %13 = load ptr, ptr %5, align 8, !tbaa !11
  %14 = load ptr, ptr %7, align 8, !tbaa !8
  store ptr %13, ptr %14, align 8, !tbaa !11
  store i1 true, ptr %4, align 1
  br label %27

15:                                               ; preds = %8
  br label %16

16:                                               ; preds = %15
  %17 = load ptr, ptr %5, align 8, !tbaa !11
  %18 = getelementptr inbounds nuw i8, ptr %17, i32 1
  store ptr %18, ptr %5, align 8, !tbaa !11
  %19 = load i8, ptr %17, align 1, !tbaa !125
  %20 = sext i8 %19 to i32
  %21 = load ptr, ptr %6, align 8, !tbaa !11
  %22 = getelementptr inbounds nuw i8, ptr %21, i32 1
  store ptr %22, ptr %6, align 8, !tbaa !11
  %23 = load i8, ptr %21, align 1, !tbaa !125
  %24 = sext i8 %23 to i32
  %25 = icmp eq i32 %20, %24
  br i1 %25, label %8, label %26, !llvm.loop !159

26:                                               ; preds = %16
  store i1 false, ptr %4, align 1
  br label %27

27:                                               ; preds = %26, %12
  %28 = load i1, ptr %4, align 1
  ret i1 %28
}

; Function Attrs: nounwind uwtable
define internal ptr @abbrev_ref(ptr noundef %0, ptr noundef %1) #0 {
  %3 = alloca ptr, align 8
  %4 = alloca ptr, align 8
  store ptr %0, ptr %3, align 8, !tbaa !11
  store ptr %1, ptr %4, align 8, !tbaa !11
  %5 = load ptr, ptr %3, align 8, !tbaa !11
  %6 = load ptr, ptr %4, align 8, !tbaa !11
  %7 = call zeroext i1 @skip_prefix(ptr noundef %5, ptr noundef %6, ptr noundef %3)
  %8 = load ptr, ptr %3, align 8, !tbaa !11
  ret ptr %8
}

; Function Attrs: nounwind uwtable
define internal i32 @add_branch_for_removal(ptr noundef %0, ptr noundef %1, ptr noundef %2, i32 noundef %3, ptr noundef %4) #0 {
  %6 = alloca i32, align 4
  %7 = alloca ptr, align 8
  %8 = alloca ptr, align 8
  %9 = alloca ptr, align 8
  %10 = alloca i32, align 4
  %11 = alloca ptr, align 8
  %12 = alloca ptr, align 8
  %13 = alloca %struct.refspec_item, align 8
  %14 = alloca ptr, align 8
  %15 = alloca i32, align 4
  store ptr %0, ptr %7, align 8, !tbaa !11
  store ptr %1, ptr %8, align 8, !tbaa !11
  store ptr %2, ptr %9, align 8, !tbaa !142
  store i32 %3, ptr %10, align 4, !tbaa !4
  store ptr %4, ptr %11, align 8, !tbaa !15
  call void @llvm.lifetime.start.p0(i64 8, ptr %12) #11
  %16 = load ptr, ptr %11, align 8, !tbaa !15
  store ptr %16, ptr %12, align 8, !tbaa !172
  call void @llvm.lifetime.start.p0(i64 32, ptr %13) #11
  call void @llvm.lifetime.start.p0(i64 8, ptr %14) #11
  call void @llvm.memset.p0.i64(ptr align 8 %13, i8 0, i64 32, i1 false)
  %17 = load ptr, ptr %7, align 8, !tbaa !11
  %18 = getelementptr inbounds nuw %struct.refspec_item, ptr %13, i32 0, i32 2
  store ptr %17, ptr %18, align 8, !tbaa !174
  %19 = load ptr, ptr %12, align 8, !tbaa !172
  %20 = getelementptr inbounds nuw %struct.branches_for_remote, ptr %19, i32 0, i32 0
  %21 = load ptr, ptr %20, align 8, !tbaa !84
  %22 = call i32 @remote_find_tracking(ptr noundef %21, ptr noundef %13)
  %23 = icmp ne i32 %22, 0
  br i1 %23, label %24, label %25

24:                                               ; preds = %5
  store i32 0, ptr %6, align 4
  store i32 1, ptr %15, align 4
  br label %74

25:                                               ; preds = %5
  %26 = getelementptr inbounds nuw %struct.refspec_item, ptr %13, i32 0, i32 1
  %27 = load ptr, ptr %26, align 8, !tbaa !175
  call void @free(ptr noundef %27) #11
  %28 = load ptr, ptr %12, align 8, !tbaa !172
  %29 = getelementptr inbounds nuw %struct.branches_for_remote, ptr %28, i32 0, i32 3
  %30 = load ptr, ptr %29, align 8, !tbaa !77
  %31 = getelementptr inbounds nuw %struct.known_remotes, ptr %30, i32 0, i32 1
  %32 = load ptr, ptr %31, align 8, !tbaa !88
  store ptr %32, ptr %14, align 8, !tbaa !89
  br label %33

33:                                               ; preds = %48, %25
  %34 = load ptr, ptr %14, align 8, !tbaa !89
  %35 = icmp ne ptr %34, null
  br i1 %35, label %36, label %52

36:                                               ; preds = %33
  call void @llvm.memset.p0.i64(ptr align 8 %13, i8 0, i64 32, i1 false)
  %37 = load ptr, ptr %7, align 8, !tbaa !11
  %38 = getelementptr inbounds nuw %struct.refspec_item, ptr %13, i32 0, i32 2
  store ptr %37, ptr %38, align 8, !tbaa !174
  %39 = load ptr, ptr %14, align 8, !tbaa !89
  %40 = getelementptr inbounds nuw %struct.known_remote, ptr %39, i32 0, i32 1
  %41 = load ptr, ptr %40, align 8, !tbaa !171
  %42 = call i32 @remote_find_tracking(ptr noundef %41, ptr noundef %13)
  %43 = icmp ne i32 %42, 0
  br i1 %43, label %47, label %44

44:                                               ; preds = %36
  %45 = getelementptr inbounds nuw %struct.refspec_item, ptr %13, i32 0, i32 1
  %46 = load ptr, ptr %45, align 8, !tbaa !175
  call void @free(ptr noundef %46) #11
  store i32 0, ptr %6, align 4
  store i32 1, ptr %15, align 4
  br label %74

47:                                               ; preds = %36
  br label %48

48:                                               ; preds = %47
  %49 = load ptr, ptr %14, align 8, !tbaa !89
  %50 = getelementptr inbounds nuw %struct.known_remote, ptr %49, i32 0, i32 0
  %51 = load ptr, ptr %50, align 8, !tbaa !90
  store ptr %51, ptr %14, align 8, !tbaa !89
  br label %33, !llvm.loop !176

52:                                               ; preds = %33
  %53 = load ptr, ptr %7, align 8, !tbaa !11
  %54 = call i32 @starts_with(ptr noundef %53, ptr noundef @.str.100)
  %55 = icmp ne i32 %54, 0
  br i1 %55, label %68, label %56

56:                                               ; preds = %52
  %57 = load ptr, ptr %7, align 8, !tbaa !11
  %58 = call i32 @starts_with(ptr noundef %57, ptr noundef @.str.79)
  %59 = icmp ne i32 %58, 0
  br i1 %59, label %60, label %67

60:                                               ; preds = %56
  %61 = load ptr, ptr %12, align 8, !tbaa !172
  %62 = getelementptr inbounds nuw %struct.branches_for_remote, ptr %61, i32 0, i32 2
  %63 = load ptr, ptr %62, align 8, !tbaa !76
  %64 = load ptr, ptr %7, align 8, !tbaa !11
  %65 = call ptr @abbrev_ref(ptr noundef %64, ptr noundef @.str.79)
  %66 = call ptr @string_list_append(ptr noundef %63, ptr noundef %65)
  br label %67

67:                                               ; preds = %60, %56
  store i32 0, ptr %6, align 4
  store i32 1, ptr %15, align 4
  br label %74

68:                                               ; preds = %52
  %69 = load ptr, ptr %12, align 8, !tbaa !172
  %70 = getelementptr inbounds nuw %struct.branches_for_remote, ptr %69, i32 0, i32 1
  %71 = load ptr, ptr %70, align 8, !tbaa !73
  %72 = load ptr, ptr %7, align 8, !tbaa !11
  %73 = call ptr @string_list_append(ptr noundef %71, ptr noundef %72)
  store i32 0, ptr %6, align 4
  store i32 1, ptr %15, align 4
  br label %74

74:                                               ; preds = %68, %67, %44, %24
  call void @llvm.lifetime.end.p0(i64 8, ptr %14) #11
  call void @llvm.lifetime.end.p0(i64 32, ptr %13) #11
  call void @llvm.lifetime.end.p0(i64 8, ptr %12) #11
  %75 = load i32, ptr %6, align 4
  ret i32 %75
}