; Function Attrs: nounwind uwtable
define internal noundef i32 @add_branch_for_removal(ptr noundef %0, ptr readnone captures(none) %1, ptr readnone captures(none) %2, i32 %3, ptr noundef readonly captures(none) %4) #0 {
  %6 = alloca %struct.refspec_item, align 8
  call void @llvm.lifetime.start.p0(i64 32, ptr nonnull %6) #19
  call void @llvm.memset.p0.i64(ptr noundef nonnull align 8 dereferenceable(32) %6, i8 0, i64 32, i1 false)
  %7 = getelementptr inbounds nuw i8, ptr %6, i64 16
  store ptr %0, ptr %7, align 8, !tbaa !143
  %8 = load ptr, ptr %4, align 8, !tbaa !86
  %9 = call i32 @remote_find_tracking(ptr noundef %8, ptr noundef nonnull %6) #19
  %.not = icmp eq i32 %9, 0
  br i1 %.not, label %10, label %41

10:                                               ; preds = %5
  %11 = getelementptr inbounds nuw i8, ptr %6, i64 8
  %12 = load ptr, ptr %11, align 8, !tbaa !144
  call void @free(ptr noundef %12) #19
  %13 = getelementptr inbounds nuw i8, ptr %4, i64 24
  %14 = load ptr, ptr %13, align 8, !tbaa !80
  %15 = getelementptr inbounds nuw i8, ptr %14, i64 8
  br label %16

16:                                               ; preds = %17, %10
  %.0.in = phi ptr [ %15, %10 ], [ %.0, %17 ]
  %.0 = load ptr, ptr %.0.in, align 8, !tbaa !145
  %.not15 = icmp eq ptr %.0, null
  br i1 %.not15, label %23, label %17

17:                                               ; preds = %16
  call void @llvm.memset.p0.i64(ptr noundef nonnull align 8 dereferenceable(32) %6, i8 0, i64 32, i1 false)
  store ptr %0, ptr %7, align 8, !tbaa !143
  %18 = getelementptr inbounds nuw i8, ptr %.0, i64 8
  %19 = load ptr, ptr %18, align 8, !tbaa !142
  %20 = call i32 @remote_find_tracking(ptr noundef %19, ptr noundef nonnull %6) #19
  %.not18 = icmp eq i32 %20, 0
  br i1 %.not18, label %21, label %16, !llvm.loop !146

21:                                               ; preds = %17
  %22 = load ptr, ptr %11, align 8, !tbaa !144
  call void @free(ptr noundef %22) #19
  br label %41

23:                                               ; preds = %16
  %24 = call i32 @starts_with(ptr noundef %0, ptr noundef nonnull @.str.100) #19
  %.not16 = icmp eq i32 %24, 0
  br i1 %.not16, label %25, label %37

25:                                               ; preds = %23
  %26 = call i32 @starts_with(ptr noundef %0, ptr noundef nonnull @.str.79) #19
  %.not17 = icmp eq i32 %26, 0
  br i1 %.not17, label %41, label %27

27:                                               ; preds = %25
  %28 = getelementptr inbounds nuw i8, ptr %4, i64 16
  %29 = load ptr, ptr %28, align 8, !tbaa !79
  %scevgep = getelementptr i8, ptr %0, i64 11
  br label %30

30:                                               ; preds = %31, %27
  %.07.i.i = phi ptr [ %0, %27 ], [ %33, %31 ]
  %.06.i.i.idx = phi i64 [ 0, %27 ], [ %.06.i.i.add, %31 ]
  %exitcond = icmp eq i64 %.06.i.i.idx, 11
  br i1 %exitcond, label %abbrev_ref.exit, label %31

31:                                               ; preds = %30
  %.06.i.i.ptr = getelementptr inbounds nuw i8, ptr @.str.79, i64 %.06.i.i.idx
  %32 = load i8, ptr %.06.i.i.ptr, align 1, !tbaa !29
  %33 = getelementptr inbounds nuw i8, ptr %.07.i.i, i64 1
  %34 = load i8, ptr %.07.i.i, align 1, !tbaa !29
  %.06.i.i.add = add nuw nsw i64 %.06.i.i.idx, 1
  %35 = icmp eq i8 %34, %32
  br i1 %35, label %30, label %abbrev_ref.exit, !llvm.loop !98

abbrev_ref.exit:                                  ; preds = %30, %31
  %.0.i = phi ptr [ %0, %31 ], [ %scevgep, %30 ]
  %36 = call ptr @string_list_append(ptr noundef %29, ptr noundef %.0.i) #19
  br label %41

37:                                               ; preds = %23
  %38 = getelementptr inbounds nuw i8, ptr %4, i64 8
  %39 = load ptr, ptr %38, align 8, !tbaa !75
  %40 = call ptr @string_list_append(ptr noundef %39, ptr noundef %0) #19
  br label %41

41:                                               ; preds = %25, %abbrev_ref.exit, %5, %37, %21
  call void @llvm.lifetime.end.p0(i64 32, ptr nonnull %6) #19
  ret i32 0
}